target datalayout = "e-m:e-p270:32:32-p271:32:32-p272:64:64-i64:64-i128:128-f80:128-n8:16:32:64-S128"
target triple = "x86_64-pc-linux-gnu"

%struct.DCHCacheEntry = type { [120 x %struct.FormatNode], [120 x i8], i8, i8, i32 }
%struct.FormatNode = type { i8, [5 x i8], i8, ptr }

@n_DCHCache = internal global i32 0, align 4
@DCHCache = internal global [20 x ptr] zeroinitializer, align 16
@DCHCounter = internal global i32 0, align 4
@TopMemoryContext = external global ptr, align 8

; Function Attrs: inlinehint nounwind uwtable
define internal void @DCH_prevent_counter_overflow() #4 {
  %1 = alloca i32, align 4
  %2 = load i32, ptr @DCHCounter, align 4
  %3 = icmp sge i32 %2, 2147483646
  br i1 %3, label %4, label %24

4:                                                ; preds = %0
  call void @llvm.lifetime.start.p0(i64 4, ptr %1) #11
  store i32 0, ptr %1, align 4
  br label %5

5:                                                ; preds = %18, %4
  %6 = load i32, ptr %1, align 4
  %7 = load i32, ptr @n_DCHCache, align 4
  %8 = icmp slt i32 %6, %7
  br i1 %8, label %10, label %9

9:                                                ; preds = %5
  call void @llvm.lifetime.end.p0(i64 4, ptr %1) #11
  br label %21

10:                                               ; preds = %5
  %11 = load i32, ptr %1, align 4
  %12 = sext i32 %11 to i64
  %13 = getelementptr inbounds [20 x ptr], ptr @DCHCache, i64 0, i64 %12
  %14 = load ptr, ptr %13, align 8
  %15 = getelementptr inbounds nuw %struct.DCHCacheEntry, ptr %14, i32 0, i32 4
  %16 = load i32, ptr %15, align 4
  %17 = ashr i32 %16, 1
  store i32 %17, ptr %15, align 4
  br label %18

18:                                               ; preds = %10
  %19 = load i32, ptr %1, align 4
  %20 = add i32 %19, 1
  store i32 %20, ptr %1, align 4
  br label %5, !llvm.loop !23

21:                                               ; preds = %9
  %22 = load i32, ptr @DCHCounter, align 4
  %23 = ashr i32 %22, 1
  store i32 %23, ptr @DCHCounter, align 4
  br label %24

24:                                               ; preds = %21, %0
  ret void
}

; Function Attrs: nounwind uwtable
define internal ptr @DCH_cache_getnew(ptr noundef %0, i1 noundef zeroext %1) #0 {
  %3 = alloca ptr, align 8
  %4 = alloca ptr, align 8
  %5 = alloca i8, align 1
  %6 = alloca ptr, align 8
  %7 = alloca ptr, align 8
  %8 = alloca i32, align 4
  %9 = alloca i32, align 4
  store ptr %0, ptr %4, align 8
  %10 = zext i1 %1 to i8
  store i8 %10, ptr %5, align 1
  call void @llvm.lifetime.start.p0(i64 8, ptr %6) #11
  call void @DCH_prevent_counter_overflow()
  %11 = load i32, ptr @n_DCHCache, align 4
  %12 = icmp sge i32 %11, 20
  br i1 %12, label %13, label %64

13:                                               ; preds = %2
  call void @llvm.lifetime.start.p0(i64 8, ptr %7) #11
  %14 = load ptr, ptr @DCHCache, align 16
  store ptr %14, ptr %7, align 8
  %15 = load ptr, ptr %7, align 8
  %16 = getelementptr inbounds nuw %struct.DCHCacheEntry, ptr %15, i32 0, i32 3
  %17 = load i8, ptr %16, align 1, !range !4, !noundef !5
  %18 = trunc i8 %17 to i1
  br i1 %18, label %19, label %51

19:                                               ; preds = %13
  call void @llvm.lifetime.start.p0(i64 4, ptr %8) #11
  store i32 1, ptr %8, align 4
  br label %20

20:                                               ; preds = %46, %19
  %21 = load i32, ptr %8, align 4
  %22 = icmp slt i32 %21, 20
  br i1 %22, label %24, label %23

23:                                               ; preds = %20
  store i32 2, ptr %9, align 4
  br label %49

24:                                               ; preds = %20
  %25 = load i32, ptr %8, align 4
  %26 = sext i32 %25 to i64
  %27 = getelementptr inbounds [20 x ptr], ptr @DCHCache, i64 0, i64 %26
  %28 = load ptr, ptr %27, align 8
  store ptr %28, ptr %6, align 8
  %29 = load ptr, ptr %6, align 8
  %30 = getelementptr inbounds nuw %struct.DCHCacheEntry, ptr %29, i32 0, i32 3
  %31 = load i8, ptr %30, align 1, !range !4, !noundef !5
  %32 = trunc i8 %31 to i1
  br i1 %32, label %35, label %33

33:                                               ; preds = %24
  %34 = load ptr, ptr %6, align 8
  store ptr %34, ptr %7, align 8
  store i32 2, ptr %9, align 4
  br label %49

35:                                               ; preds = %24
  %36 = load ptr, ptr %6, align 8
  %37 = getelementptr inbounds nuw %struct.DCHCacheEntry, ptr %36, i32 0, i32 4
  %38 = load i32, ptr %37, align 4
  %39 = load ptr, ptr %7, align 8
  %40 = getelementptr inbounds nuw %struct.DCHCacheEntry, ptr %39, i32 0, i32 4
  %41 = load i32, ptr %40, align 4
  %42 = icmp slt i32 %38, %41
  br i1 %42, label %43, label %45

43:                                               ; preds = %35
  %44 = load ptr, ptr %6, align 8
  store ptr %44, ptr %7, align 8
  br label %45

45:                                               ; preds = %43, %35
  br label %46

46:                                               ; preds = %45
  %47 = load i32, ptr %8, align 4
  %48 = add i32 %47, 1
  store i32 %48, ptr %8, align 4
  br label %20, !llvm.loop !22

49:                                               ; preds = %33, %23
  call void @llvm.lifetime.end.p0(i64 4, ptr %8) #11
  br label %50

50:                                               ; preds = %49
  br label %51

51:                                               ; preds = %50, %13
  %52 = load ptr, ptr %7, align 8
  %53 = getelementptr inbounds nuw %struct.DCHCacheEntry, ptr %52, i32 0, i32 3
  store i8 0, ptr %53, align 1
  %54 = load ptr, ptr %7, align 8
  %55 = getelementptr inbounds nuw %struct.DCHCacheEntry, ptr %54, i32 0, i32 1
  %56 = getelementptr inbounds [120 x i8], ptr %55, i64 0, i64 0
  %57 = load ptr, ptr %4, align 8
  %58 = call i64 @strlcpy(ptr noundef %56, ptr noundef %57, i64 noundef 120)
  %59 = load i32, ptr @DCHCounter, align 4
  %60 = add i32 %59, 1
  store i32 %60, ptr @DCHCounter, align 4
  %61 = load ptr, ptr %7, align 8
  %62 = getelementptr inbounds nuw %struct.DCHCacheEntry, ptr %61, i32 0, i32 4
  store i32 %60, ptr %62, align 4
  %63 = load ptr, ptr %7, align 8
  store ptr %63, ptr %3, align 8
  store i32 1, ptr %9, align 4
  call void @llvm.lifetime.end.p0(i64 8, ptr %7) #11
  br label %89

64:                                               ; preds = %2
  %65 = load ptr, ptr @TopMemoryContext, align 8
  %66 = call ptr @MemoryContextAllocZero(ptr noundef %65, i64 noundef 2048)
  store ptr %66, ptr %6, align 8
  %67 = load i32, ptr @n_DCHCache, align 4
  %68 = sext i32 %67 to i64
  %69 = getelementptr inbounds [20 x ptr], ptr @DCHCache, i64 0, i64 %68
  store ptr %66, ptr %69, align 8
  %70 = load ptr, ptr %6, align 8
  %71 = getelementptr inbounds nuw %struct.DCHCacheEntry, ptr %70, i32 0, i32 3
  store i8 0, ptr %71, align 1
  %72 = load ptr, ptr %6, align 8
  %73 = getelementptr inbounds nuw %struct.DCHCacheEntry, ptr %72, i32 0, i32 1
  %74 = getelementptr inbounds [120 x i8], ptr %73, i64 0, i64 0
  %75 = load ptr, ptr %4, align 8
  %76 = call i64 @strlcpy(ptr noundef %74, ptr noundef %75, i64 noundef 120)
  %77 = load i8, ptr %5, align 1, !range !4, !noundef !5
  %78 = trunc i8 %77 to i1
  %79 = load ptr, ptr %6, align 8
  %80 = getelementptr inbounds nuw %struct.DCHCacheEntry, ptr %79, i32 0, i32 2
  %81 = zext i1 %78 to i8
  store i8 %81, ptr %80, align 8
  %82 = load i32, ptr @DCHCounter, align 4
  %83 = add i32 %82, 1
  store i32 %83, ptr @DCHCounter, align 4
  %84 = load ptr, ptr %6, align 8
  %85 = getelementptr inbounds nuw %struct.DCHCacheEntry, ptr %84, i32 0, i32 4
  store i32 %83, ptr %85, align 4
  %86 = load i32, ptr @n_DCHCache, align 4
  %87 = add i32 %86, 1
  store i32 %87, ptr @n_DCHCache, align 4
  %88 = load ptr, ptr %6, align 8
  store ptr %88, ptr %3, align 8
  store i32 1, ptr %9, align 4
  br label %89

89:                                               ; preds = %64, %51
  call void @llvm.lifetime.end.p0(i64 8, ptr %6) #11
  %90 = load ptr, ptr %3, align 8
  ret ptr %90
}

; Function Attrs: nounwind uwtable
define internal ptr @DCH_cache_search(ptr noundef %0, i1 noundef zeroext %1) #0 {
  %3 = alloca ptr, align 8
  %4 = alloca ptr, align 8
  %5 = alloca i8, align 1
  %6 = alloca i32, align 4
  %7 = alloca i32, align 4
  %8 = alloca ptr, align 8
  store ptr %0, ptr %4, align 8
  %9 = zext i1 %1 to i8
  store i8 %9, ptr %5, align 1
  call void @DCH_prevent_counter_overflow()
  call void @llvm.lifetime.start.p0(i64 4, ptr %6) #11
  store i32 0, ptr %6, align 4
  br label %10

10:                                               ; preds = %51, %2
  %11 = load i32, ptr %6, align 4
  %12 = load i32, ptr @n_DCHCache, align 4
  %13 = icmp slt i32 %11, %12
  br i1 %13, label %15, label %14

14:                                               ; preds = %10
  store i32 2, ptr %7, align 4
  br label %54

15:                                               ; preds = %10
  call void @llvm.lifetime.start.p0(i64 8, ptr %8) #11
  %16 = load i32, ptr %6, align 4
  %17 = sext i32 %16 to i64
  %18 = getelementptr inbounds [20 x ptr], ptr @DCHCache, i64 0, i64 %17
  %19 = load ptr, ptr %18, align 8
  store ptr %19, ptr %8, align 8
  %20 = load ptr, ptr %8, align 8
  %21 = getelementptr inbounds nuw %struct.DCHCacheEntry, ptr %20, i32 0, i32 3
  %22 = load i8, ptr %21, align 1, !range !4, !noundef !5
  %23 = trunc i8 %22 to i1
  br i1 %23, label %24, label %47

24:                                               ; preds = %15
  %25 = load ptr, ptr %8, align 8
  %26 = getelementptr inbounds nuw %struct.DCHCacheEntry, ptr %25, i32 0, i32 1
  %27 = getelementptr inbounds [120 x i8], ptr %26, i64 0, i64 0
  %28 = load ptr, ptr %4, align 8
  %29 = call i32 @strcmp(ptr noundef %27, ptr noundef %28) #13
  %30 = icmp eq i32 %29, 0
  br i1 %30, label %31, label %47

31:                                               ; preds = %24
  %32 = load ptr, ptr %8, align 8
  %33 = getelementptr inbounds nuw %struct.DCHCacheEntry, ptr %32, i32 0, i32 2
  %34 = load i8, ptr %33, align 8, !range !4, !noundef !5
  %35 = trunc i8 %34 to i1
  %36 = zext i1 %35 to i32
  %37 = load i8, ptr %5, align 1, !range !4, !noundef !5
  %38 = trunc i8 %37 to i1
  %39 = zext i1 %38 to i32
  %40 = icmp eq i32 %36, %39
  br i1 %40, label %41, label %47

41:                                               ; preds = %31
  %42 = load i32, ptr @DCHCounter, align 4
  %43 = add i32 %42, 1
  store i32 %43, ptr @DCHCounter, align 4
  %44 = load ptr, ptr %8, align 8
  %45 = getelementptr inbounds nuw %struct.DCHCacheEntry, ptr %44, i32 0, i32 4
  store i32 %43, ptr %45, align 4
  %46 = load ptr, ptr %8, align 8
  store ptr %46, ptr %3, align 8
  store i32 1, ptr %7, align 4
  br label %48

47:                                               ; preds = %31, %24, %15
  store i32 0, ptr %7, align 4
  br label %48

48:                                               ; preds = %47, %41
  call void @llvm.lifetime.end.p0(i64 8, ptr %8) #11
  %49 = load i32, ptr %7, align 4
  switch i32 %49, label %54 [
    i32 0, label %50
  ]

50:                                               ; preds = %48
  br label %51

51:                                               ; preds = %50
  %52 = load i32, ptr %6, align 4
  %53 = add i32 %52, 1
  store i32 %53, ptr %6, align 4
  br label %10, !llvm.loop !21

54:                                               ; preds = %48, %14
  call void @llvm.lifetime.end.p0(i64 4, ptr %6) #11
  %55 = load i32, ptr %7, align 4
  switch i32 %55, label %59 [
    i32 2, label %56
    i32 1, label %57
  ]

56:                                               ; preds = %54
  store ptr null, ptr %3, align 8
  br label %57

57:                                               ; preds = %56, %54
  %58 = load ptr, ptr %3, align 8
  ret ptr %58

59:                                               ; preds = %54
  unreachable
}

; Function Attrs: nounwind uwtable
define internal ptr @DCH_cache_fetch(ptr noundef %0, i1 noundef zeroext %1) #0 {
  %3 = alloca ptr, align 8
  %4 = alloca i8, align 1
  %5 = alloca ptr, align 8
  store ptr %0, ptr %3, align 8
  %6 = zext i1 %1 to i8
  store i8 %6, ptr %4, align 1
  call void @llvm.lifetime.start.p0(i64 8, ptr %5) #11
  %7 = load ptr, ptr %3, align 8
  %8 = load i8, ptr %4, align 1, !range !4, !noundef !5
  %9 = trunc i8 %8 to i1
  %10 = call ptr @DCH_cache_search(ptr noundef %7, i1 noundef zeroext %9)
  store ptr %10, ptr %5, align 8
  %11 = icmp eq ptr %10, null
  br i1 %11, label %12, label %27

12:                                               ; preds = %2
  %13 = load ptr, ptr %3, align 8
  %14 = load i8, ptr %4, align 1, !range !4, !noundef !5
  %15 = trunc i8 %14 to i1
  %16 = call ptr @DCH_cache_getnew(ptr noundef %13, i1 noundef zeroext %15)
  store ptr %16, ptr %5, align 8
  %17 = load ptr, ptr %5, align 8
  %18 = getelementptr inbounds nuw %struct.DCHCacheEntry, ptr %17, i32 0, i32 0
  %19 = getelementptr inbounds [120 x %struct.FormatNode], ptr %18, i64 0, i64 0
  %20 = load ptr, ptr %3, align 8
  %21 = load i8, ptr %4, align 1, !range !4, !noundef !5
  %22 = trunc i8 %21 to i1
  %23 = select i1 %22, i32 4, i32 0
  %24 = or i32 1, %23
  call void @parse_format(ptr noundef %19, ptr noundef %20, ptr noundef @DCH_keywords, ptr noundef @DCH_suff, ptr noundef @DCH_index, i32 noundef %24, ptr noundef null)
  %25 = load ptr, ptr %5, align 8
  %26 = getelementptr inbounds nuw %struct.DCHCacheEntry, ptr %25, i32 0, i32 3
  store i8 1, ptr %26, align 1
  br label %27

27:                                               ; preds = %12, %2
  %28 = load ptr, ptr %5, align 8
  call void @llvm.lifetime.end.p0(i64 8, ptr %5) #11
  ret ptr %28
}