; Function Attrs: nounwind uwtable
define internal fastcc ptr @DCH_cache_fetch(ptr noundef %0, i1 noundef zeroext %1) unnamed_addr #0 {
  %3 = load i32, ptr @DCHCounter, align 4
  %4 = icmp sgt i32 %3, 2147483645
  %.pre.i = load i32, ptr @n_DCHCache, align 4
  br i1 %4, label %.preheader.i.i, label %DCH_prevent_counter_overflow.exit.i

.preheader.i.i:                                   ; preds = %2
  %5 = icmp sgt i32 %.pre.i, 0
  br i1 %5, label %.lr.ph.preheader.i.i, label %._crit_edge.i.i

.lr.ph.preheader.i.i:                             ; preds = %.preheader.i.i
  %wide.trip.count.i.i = zext nneg i32 %.pre.i to i64
  br label %.lr.ph.i.i

._crit_edge.i.i:                                  ; preds = %.lr.ph.i.i, %.preheader.i.i
  store i32 1073741823, ptr @DCHCounter, align 4
  br label %DCH_prevent_counter_overflow.exit.i

.lr.ph.i.i:                                       ; preds = %.lr.ph.i.i, %.lr.ph.preheader.i.i
  %indvars.iv.i.i = phi i64 [ 0, %.lr.ph.preheader.i.i ], [ %indvars.iv.next.i.i, %.lr.ph.i.i ]
  %6 = getelementptr inbounds nuw [20 x ptr], ptr @DCHCache, i64 0, i64 %indvars.iv.i.i
  %7 = load ptr, ptr %6, align 8
  %8 = getelementptr inbounds nuw i8, ptr %7, i64 2044
  %9 = load i32, ptr %8, align 4
  %10 = ashr i32 %9, 1
  store i32 %10, ptr %8, align 4
  %indvars.iv.next.i.i = add nuw nsw i64 %indvars.iv.i.i, 1
  %exitcond.not.i.i = icmp eq i64 %indvars.iv.next.i.i, %wide.trip.count.i.i
  br i1 %exitcond.not.i.i, label %._crit_edge.i.i, label %.lr.ph.i.i, !llvm.loop !19

DCH_prevent_counter_overflow.exit.i:              ; preds = %._crit_edge.i.i, %2
  %11 = phi i32 [ %3, %2 ], [ 1073741823, %._crit_edge.i.i ]
  %.not18.i = icmp sgt i32 %.pre.i, 0
  br i1 %.not18.i, label %.lr.ph.i, label %DCH_prevent_counter_overflow.exit.i10.thread

.lr.ph.i:                                         ; preds = %DCH_prevent_counter_overflow.exit.i
  %12 = zext i1 %1 to i8
  %wide.trip.count.i = zext nneg i32 %.pre.i to i64
  br label %13

13:                                               ; preds = %27, %.lr.ph.i
  %indvars.iv.i = phi i64 [ 0, %.lr.ph.i ], [ %indvars.iv.next.i, %27 ]
  %14 = getelementptr inbounds nuw [20 x ptr], ptr @DCHCache, i64 0, i64 %indvars.iv.i
  %15 = load ptr, ptr %14, align 8
  %16 = getelementptr inbounds nuw i8, ptr %15, i64 2041
  %17 = load i8, ptr %16, align 1, !range !4, !noundef !5
  %18 = trunc nuw i8 %17 to i1
  br i1 %18, label %19, label %27

19:                                               ; preds = %13
  %20 = getelementptr inbounds nuw i8, ptr %15, i64 1920
  %21 = tail call i32 @strcmp(ptr noundef nonnull dereferenceable(1) %20, ptr noundef nonnull readonly dereferenceable(1) %0) #19
  %22 = icmp eq i32 %21, 0
  br i1 %22, label %23, label %27

23:                                               ; preds = %19
  %24 = getelementptr inbounds nuw i8, ptr %15, i64 2040
  %25 = load i8, ptr %24, align 8, !range !4, !noundef !5
  %26 = icmp eq i8 %25, %12
  br i1 %26, label %DCH_cache_search.exit, label %27

27:                                               ; preds = %23, %19, %13
  %indvars.iv.next.i = add nuw nsw i64 %indvars.iv.i, 1
  %exitcond.not.i = icmp eq i64 %indvars.iv.next.i, %wide.trip.count.i
  br i1 %exitcond.not.i, label %30, label %13, !llvm.loop !20

DCH_cache_search.exit:                            ; preds = %23
  %28 = add i32 %11, 1
  store i32 %28, ptr @DCHCounter, align 4
  %29 = getelementptr inbounds nuw i8, ptr %15, i64 2044
  store i32 %28, ptr %29, align 4
  br label %77

30:                                               ; preds = %27
  %31 = icmp sgt i32 %11, 2147483645
  br i1 %31, label %.lr.ph.i.i19, label %DCH_prevent_counter_overflow.exit.i10

._crit_edge.i.i16:                                ; preds = %.lr.ph.i.i19
  store i32 1073741823, ptr @DCHCounter, align 4
  br label %DCH_prevent_counter_overflow.exit.i10

.lr.ph.i.i19:                                     ; preds = %30, %.lr.ph.i.i19
  %indvars.iv.i.i20 = phi i64 [ %indvars.iv.next.i.i21, %.lr.ph.i.i19 ], [ 0, %30 ]
  %32 = getelementptr inbounds nuw [20 x ptr], ptr @DCHCache, i64 0, i64 %indvars.iv.i.i20
  %33 = load ptr, ptr %32, align 8
  %34 = getelementptr inbounds nuw i8, ptr %33, i64 2044
  %35 = load i32, ptr %34, align 4
  %36 = ashr i32 %35, 1
  store i32 %36, ptr %34, align 4
  %indvars.iv.next.i.i21 = add nuw nsw i64 %indvars.iv.i.i20, 1
  %exitcond.not.i.i22 = icmp eq i64 %indvars.iv.next.i.i21, %wide.trip.count.i
  br i1 %exitcond.not.i.i22, label %._crit_edge.i.i16, label %.lr.ph.i.i19, !llvm.loop !19

DCH_prevent_counter_overflow.exit.i10:            ; preds = %._crit_edge.i.i16, %30
  %37 = icmp sgt i32 %.pre.i, 19
  br i1 %37, label %38, label %DCH_prevent_counter_overflow.exit.i10.thread

38:                                               ; preds = %DCH_prevent_counter_overflow.exit.i10
  %39 = load ptr, ptr @DCHCache, align 16
  %40 = getelementptr inbounds nuw i8, ptr %39, i64 2041
  %41 = load i8, ptr %40, align 1, !range !4, !noundef !5
  %42 = trunc nuw i8 %41 to i1
  br i1 %42, label %.preheader.i, label %.loopexit.i

.preheader.i:                                     ; preds = %38, %48
  %indvars.iv.i11 = phi i64 [ %indvars.iv.next.i13, %48 ], [ 1, %38 ]
  %.123.i = phi ptr [ %spec.select.i12, %48 ], [ %39, %38 ]
  %43 = getelementptr inbounds nuw [20 x ptr], ptr @DCHCache, i64 0, i64 %indvars.iv.i11
  %44 = load ptr, ptr %43, align 8
  %45 = getelementptr inbounds nuw i8, ptr %44, i64 2041
  %46 = load i8, ptr %45, align 1, !range !4, !noundef !5
  %47 = trunc nuw i8 %46 to i1
  br i1 %47, label %48, label %.loopexit.i

48:                                               ; preds = %.preheader.i
  %49 = getelementptr inbounds nuw i8, ptr %44, i64 2044
  %50 = load i32, ptr %49, align 4
  %51 = getelementptr inbounds nuw i8, ptr %.123.i, i64 2044
  %52 = load i32, ptr %51, align 4
  %53 = icmp slt i32 %50, %52
  %spec.select.i12 = select i1 %53, ptr %44, ptr %.123.i
  %indvars.iv.next.i13 = add nuw nsw i64 %indvars.iv.i11, 1
  %exitcond.not.i14 = icmp eq i64 %indvars.iv.next.i13, 20
  br i1 %exitcond.not.i14, label %.loopexit.i, label %.preheader.i, !llvm.loop !21

.loopexit.i:                                      ; preds = %48, %.preheader.i, %38
  %.021.i = phi ptr [ %39, %38 ], [ %spec.select.i12, %48 ], [ %44, %.preheader.i ]
  %54 = getelementptr inbounds nuw i8, ptr %.021.i, i64 2041
  store i8 0, ptr %54, align 1
  %55 = getelementptr inbounds nuw i8, ptr %.021.i, i64 1920
  %56 = tail call i64 @strlcpy(ptr noundef nonnull dereferenceable(1) %55, ptr noundef nonnull dereferenceable(1) %0, i64 noundef 120) #18
  %57 = load i32, ptr @DCHCounter, align 4
  %58 = add i32 %57, 1
  store i32 %58, ptr @DCHCounter, align 4
  %59 = getelementptr inbounds nuw i8, ptr %.021.i, i64 2044
  store i32 %58, ptr %59, align 4
  br label %DCH_cache_getnew.exit

DCH_prevent_counter_overflow.exit.i10.thread:     ; preds = %DCH_prevent_counter_overflow.exit.i, %DCH_prevent_counter_overflow.exit.i10
  %60 = zext i1 %1 to i8
  %61 = load ptr, ptr @TopMemoryContext, align 8
  %62 = tail call ptr @MemoryContextAllocZero(ptr noundef %61, i64 noundef 2048) #18
  %63 = load i32, ptr @n_DCHCache, align 4
  %64 = sext i32 %63 to i64
  %65 = getelementptr inbounds [20 x ptr], ptr @DCHCache, i64 0, i64 %64
  store ptr %62, ptr %65, align 8
  %66 = getelementptr inbounds nuw i8, ptr %62, i64 2041
  store i8 0, ptr %66, align 1
  %67 = getelementptr inbounds nuw i8, ptr %62, i64 1920
  %68 = tail call i64 @strlcpy(ptr noundef nonnull dereferenceable(1) %67, ptr noundef nonnull dereferenceable(1) %0, i64 noundef 120) #18
  %69 = getelementptr inbounds nuw i8, ptr %62, i64 2040
  store i8 %60, ptr %69, align 8
  %70 = load i32, ptr @DCHCounter, align 4
  %71 = add i32 %70, 1
  store i32 %71, ptr @DCHCounter, align 4
  %72 = getelementptr inbounds nuw i8, ptr %62, i64 2044
  store i32 %71, ptr %72, align 4
  %73 = load i32, ptr @n_DCHCache, align 4
  %74 = add i32 %73, 1
  store i32 %74, ptr @n_DCHCache, align 4
  br label %DCH_cache_getnew.exit

DCH_cache_getnew.exit:                            ; preds = %.loopexit.i, %DCH_prevent_counter_overflow.exit.i10.thread
  %.022.i = phi ptr [ %.021.i, %.loopexit.i ], [ %62, %DCH_prevent_counter_overflow.exit.i10.thread ]
  %75 = select i1 %1, i32 5, i32 1
  tail call fastcc void @parse_format(ptr noundef nonnull %.022.i, ptr noundef nonnull %0, ptr noundef nonnull @DCH_keywords, ptr noundef nonnull @DCH_suff, ptr noundef nonnull @DCH_index, i32 noundef %75, ptr noundef null)
  %76 = getelementptr inbounds nuw i8, ptr %.022.i, i64 2041
  store i8 1, ptr %76, align 1
  br label %77

77:                                               ; preds = %DCH_cache_search.exit, %DCH_cache_getnew.exit
  %.0 = phi ptr [ %.022.i, %DCH_cache_getnew.exit ], [ %15, %DCH_cache_search.exit ]
  ret ptr %.0
}